; Function Attrs: nounwind uwtable
define zeroext i8 @l_Lean_Elab_Term_MatchExpr_getAltFor_x3f___lambda__1(ptr noundef %0, ptr noundef readonly captures(none) %1) local_unnamed_addr #0 {
  %3 = getelementptr inbounds nuw i8, ptr %1, i64 16
  %4 = load ptr, ptr %3, align 8, !tbaa !4
  %5 = tail call ptr @l_Lean_Syntax_getId(ptr noundef %4) #6
  %6 = tail call ptr @l_Lean_Syntax_getId(ptr noundef %0) #6
  %7 = tail call zeroext i8 @lean_name_eq(ptr noundef %5, ptr noundef %6) #6
  %8 = ptrtoint ptr %6 to i64
  %9 = and i64 %8, 1
  %.not = icmp eq i64 %9, 0
  br i1 %.not, label %10, label %lean_dec.exit12

10:                                               ; preds = %2
  %11 = load i32, ptr %6, align 4, !tbaa !8
  %12 = icmp sgt i32 %11, 1
  br i1 %12, label %13, label %15, !prof !11

13:                                               ; preds = %10
  %14 = add nsw i32 %11, -1
  store i32 %14, ptr %6, align 4, !tbaa !8
  br label %lean_dec.exit12

15:                                               ; preds = %10
  %.not.i = icmp eq i32 %11, 0
  br i1 %.not.i, label %lean_dec.exit12, label %16

16:                                               ; preds = %15
  tail call void @lean_dec_ref_cold(ptr noundef nonnull %6) #6
  br label %lean_dec.exit12

lean_dec.exit12:                                  ; preds = %16, %15, %13, %2
  %17 = ptrtoint ptr %5 to i64
  %18 = and i64 %17, 1
  %.not15 = icmp eq i64 %18, 0
  br i1 %.not15, label %19, label %lean_dec.exit

19:                                               ; preds = %lean_dec.exit12
  %20 = load i32, ptr %5, align 4, !tbaa !8
  %21 = icmp sgt i32 %20, 1
  br i1 %21, label %22, label %24, !prof !11

22:                                               ; preds = %19
  %23 = add nsw i32 %20, -1
  store i32 %23, ptr %5, align 4, !tbaa !8
  br label %lean_dec.exit

24:                                               ; preds = %19
  %.not.i13 = icmp eq i32 %20, 0
  br i1 %.not.i13, label %lean_dec.exit, label %25

25:                                               ; preds = %24
  tail call void @lean_dec_ref_cold(ptr noundef nonnull %5) #6
  br label %lean_dec.exit

lean_dec.exit:                                    ; preds = %25, %24, %22, %lean_dec.exit12
  %26 = icmp eq i8 %7, 0
  br i1 %26, label %31, label %27

27:                                               ; preds = %lean_dec.exit
  %28 = getelementptr inbounds nuw i8, ptr %1, i64 24
  %29 = load ptr, ptr %28, align 8, !tbaa !4
  %30 = tail call zeroext i8 @l_List_isEmpty___rarg(ptr noundef %29) #6
  br label %31

31:                                               ; preds = %lean_dec.exit, %27
  %.0 = phi i8 [ %30, %27 ], [ 0, %lean_dec.exit ]
  ret i8 %.0
}